target datalayout = "e-m:e-p270:32:32-p271:32:32-p272:64:64-i64:64-i128:128-f80:128-n8:16:32:64-S128"
target triple = "x86_64-pc-linux-gnu"

@config_file = internal global ptr null, align 8
@.str.33 = private unnamed_addr constant [38 x i8] c"../openssl/test/evp_fetch_prov_test.c\00", align 1
@.str.34 = private unnamed_addr constant [4 x i8] c"ctx\00", align 1
@.str.35 = private unnamed_addr constant [43 x i8] c"OSSL_LIB_CTX_load_config(ctx, config_file)\00", align 1
@.str.39 = private unnamed_addr constant [8 x i8] c"prov[i]\00", align 1

; Function Attrs: nounwind uwtable
define internal i32 @load_providers(ptr noundef %0, ptr noundef %1) #0 {
  %3 = alloca i32, align 4
  %4 = alloca ptr, align 8
  %5 = alloca ptr, align 8
  %6 = alloca ptr, align 8
  %7 = alloca i32, align 4
  %8 = alloca i64, align 8
  %9 = alloca ptr, align 8
  %10 = alloca i32, align 4
  store ptr %0, ptr %4, align 8, !tbaa !19
  store ptr %1, ptr %5, align 8, !tbaa !21
  call void @llvm.lifetime.start.p0(i64 8, ptr %6) #6
  store ptr null, ptr %6, align 8, !tbaa !13
  call void @llvm.lifetime.start.p0(i64 4, ptr %7) #6
  store i32 0, ptr %7, align 4, !tbaa !4
  call void @llvm.lifetime.start.p0(i64 8, ptr %8) #6
  %11 = call ptr @OSSL_LIB_CTX_new()
  store ptr %11, ptr %6, align 8, !tbaa !13
  %12 = load ptr, ptr %6, align 8, !tbaa !13
  %13 = call i32 @test_ptr(ptr noundef @.str.33, i32 noundef 86, ptr noundef @.str.34, ptr noundef %12)
  %14 = icmp ne i32 %13, 0
  br i1 %14, label %16, label %15

15:                                               ; preds = %2
  br label %60

16:                                               ; preds = %2
  %17 = load ptr, ptr %6, align 8, !tbaa !13
  %18 = load ptr, ptr @config_file, align 8, !tbaa !8
  %19 = call i32 @OSSL_LIB_CTX_load_config(ptr noundef %17, ptr noundef %18)
  %20 = icmp ne i32 %19, 0
  %21 = zext i1 %20 to i32
  %22 = call i32 @test_true(ptr noundef @.str.33, i32 noundef 89, ptr noundef @.str.35, i32 noundef %21)
  %23 = icmp ne i32 %22, 0
  br i1 %23, label %25, label %24

24:                                               ; preds = %16
  br label %60

25:                                               ; preds = %16
  %26 = call i64 @test_get_argument_count()
  %27 = icmp ugt i64 %26, 2
  br i1 %27, label %28, label %29

28:                                               ; preds = %25
  br label %60

29:                                               ; preds = %25
  store i64 0, ptr %8, align 8, !tbaa !23
  br label %30

30:                                               ; preds = %54, %29
  %31 = load i64, ptr %8, align 8, !tbaa !23
  %32 = call i64 @test_get_argument_count()
  %33 = icmp ult i64 %31, %32
  br i1 %33, label %34, label %57

34:                                               ; preds = %30
  call void @llvm.lifetime.start.p0(i64 8, ptr %9) #6
  %35 = load i64, ptr %8, align 8, !tbaa !23
  %36 = call ptr @test_get_argument(i64 noundef %35)
  store ptr %36, ptr %9, align 8, !tbaa !8
  %37 = load ptr, ptr %6, align 8, !tbaa !13
  %38 = load ptr, ptr %9, align 8, !tbaa !8
  %39 = call ptr @OSSL_PROVIDER_load(ptr noundef %37, ptr noundef %38)
  %40 = load ptr, ptr %5, align 8, !tbaa !21
  %41 = load i64, ptr %8, align 8, !tbaa !23
  %42 = getelementptr inbounds nuw ptr, ptr %40, i64 %41
  store ptr %39, ptr %42, align 8, !tbaa !25
  %43 = load ptr, ptr %5, align 8, !tbaa !21
  %44 = load i64, ptr %8, align 8, !tbaa !23
  %45 = getelementptr inbounds nuw ptr, ptr %43, i64 %44
  %46 = load ptr, ptr %45, align 8, !tbaa !25
  %47 = call i32 @test_ptr(ptr noundef @.str.33, i32 noundef 97, ptr noundef @.str.39, ptr noundef %46)
  %48 = icmp ne i32 %47, 0
  br i1 %48, label %50, label %49

49:                                               ; preds = %34
  store i32 2, ptr %10, align 4
  br label %51

50:                                               ; preds = %34
  store i32 0, ptr %10, align 4
  br label %51

51:                                               ; preds = %49, %50
  call void @llvm.lifetime.end.p0(i64 8, ptr %9) #6
  %52 = load i32, ptr %10, align 4
  switch i32 %52, label %67 [
    i32 0, label %53
    i32 2, label %60
  ]

53:                                               ; preds = %51
  br label %54

54:                                               ; preds = %53
  %55 = load i64, ptr %8, align 8, !tbaa !23
  %56 = add i64 %55, 1
  store i64 %56, ptr %8, align 8, !tbaa !23
  br label %30, !llvm.loop !27

57:                                               ; preds = %30
  store i32 1, ptr %7, align 4, !tbaa !4
  %58 = load ptr, ptr %6, align 8, !tbaa !13
  %59 = load ptr, ptr %4, align 8, !tbaa !19
  store ptr %58, ptr %59, align 8, !tbaa !13
  br label %60

60:                                               ; preds = %57, %51, %28, %24, %15
  %61 = load i32, ptr %7, align 4, !tbaa !4
  %62 = icmp eq i32 %61, 0
  br i1 %62, label %63, label %65

63:                                               ; preds = %60
  %64 = load ptr, ptr %6, align 8, !tbaa !13
  call void @OSSL_LIB_CTX_free(ptr noundef %64)
  br label %65

65:                                               ; preds = %63, %60
  %66 = load i32, ptr %7, align 4, !tbaa !4
  store i32 %66, ptr %3, align 4
  store i32 1, ptr %10, align 4
  br label %67

67:                                               ; preds = %65, %51
  call void @llvm.lifetime.end.p0(i64 8, ptr %8) #6
  call void @llvm.lifetime.end.p0(i64 4, ptr %7) #6
  call void @llvm.lifetime.end.p0(i64 8, ptr %6) #6
  %68 = load i32, ptr %3, align 4
  ret i32 %68
}