; Function Attrs: nounwind uwtable
define internal fastcc range(i32 0, 2) i32 @load_providers(ptr noundef nonnull writeonly captures(none) %0, ptr noundef nonnull writeonly captures(none) %1) unnamed_addr #1 {
  %3 = tail call ptr @OSSL_LIB_CTX_new() #7
  %4 = tail call i32 @test_ptr(ptr noundef nonnull @.str.33, i32 noundef 86, ptr noundef nonnull @.str.34, ptr noundef %3) #7
  %.not = icmp eq i32 %4, 0
  br i1 %.not, label %.loopexit, label %5

5:                                                ; preds = %2
  %6 = load ptr, ptr @config_file, align 8, !tbaa !6
  %7 = tail call i32 @OSSL_LIB_CTX_load_config(ptr noundef %3, ptr noundef %6) #7
  %8 = icmp ne i32 %7, 0
  %9 = zext i1 %8 to i32
  %10 = tail call i32 @test_true(ptr noundef nonnull @.str.33, i32 noundef 89, ptr noundef nonnull @.str.35, i32 noundef %9) #7
  %.not20 = icmp eq i32 %10, 0
  br i1 %.not20, label %.loopexit, label %11

11:                                               ; preds = %5
  %12 = tail call i64 @test_get_argument_count() #7
  %13 = icmp ugt i64 %12, 2
  br i1 %13, label %.loopexit, label %.preheader

.preheader:                                       ; preds = %11
  %14 = tail call i64 @test_get_argument_count() #7
  %.not26 = icmp eq i64 %14, 0
  br i1 %.not26, label %._crit_edge, label %.lr.ph

15:                                               ; preds = %.lr.ph
  %16 = add nuw i64 %.01825, 1
  %17 = tail call i64 @test_get_argument_count() #7
  %18 = icmp ult i64 %16, %17
  br i1 %18, label %.lr.ph, label %._crit_edge, !llvm.loop !17

.lr.ph:                                           ; preds = %.preheader, %15
  %.01825 = phi i64 [ %16, %15 ], [ 0, %.preheader ]
  %19 = tail call ptr @test_get_argument(i64 noundef %.01825) #7
  %20 = tail call ptr @OSSL_PROVIDER_load(ptr noundef %3, ptr noundef %19) #7
  %21 = getelementptr inbounds nuw ptr, ptr %1, i64 %.01825
  store ptr %20, ptr %21, align 8, !tbaa !13
  %22 = tail call i32 @test_ptr(ptr noundef nonnull @.str.33, i32 noundef 97, ptr noundef nonnull @.str.39, ptr noundef %20) #7
  %.not21 = icmp eq i32 %22, 0
  br i1 %.not21, label %.loopexit, label %15

._crit_edge:                                      ; preds = %15, %.preheader
  store ptr %3, ptr %0, align 8, !tbaa !11
  br label %23

.loopexit:                                        ; preds = %.lr.ph, %11, %5, %2
  tail call void @OSSL_LIB_CTX_free(ptr noundef %3) #7
  br label %23

23:                                               ; preds = %._crit_edge, %.loopexit
  %.01923 = phi i32 [ 1, %._crit_edge ], [ 0, %.loopexit ]
  ret i32 %.01923
}